target datalayout = "e-m:e-p270:32:32-p271:32:32-p272:64:64-i64:64-i128:128-f80:128-n8:16:32:64-S128"
target triple = "x86_64-unknown-linux-gnu"

%"class.QuantLib::Date" = type { i64 }

; Function Attrs: inlinehint mustprogress uwtable
define linkonce_odr noundef i32 @_ZNK8QuantLib4Date9dayOfYearEv(ptr noundef nonnull align 8 dereferenceable(8) %this) #5 comdat align 2 {
entry:
  %this.addr = alloca ptr, align 8
  store ptr %this, ptr %this.addr, align 8, !tbaa !3
  %this1 = load ptr, ptr %this.addr, align 8
  %serialNumber_ = getelementptr inbounds nuw %"class.QuantLib::Date", ptr %this1, i32 0, i32 0
  %0 = load i64, ptr %serialNumber_, align 8, !tbaa !18
  %call = call noundef i32 @_ZNK8QuantLib4Date4yearEv(ptr noundef nonnull align 8 dereferenceable(8) %this1)
  %call2 = call noundef i64 @_ZN8QuantLib4Date10yearOffsetEi(i32 noundef %call)
  %sub = sub nsw i64 %0, %call2
  %conv = trunc i64 %sub to i32
  ret i32 %conv
}

; Function Attrs: inlinehint mustprogress uwtable
define linkonce_odr noundef i32 @_ZNK8QuantLib4Date10dayOfMonthEv(ptr noundef nonnull align 8 dereferenceable(8) %this) #5 comdat align 2 {
entry:
  %this.addr = alloca ptr, align 8
  store ptr %this, ptr %this.addr, align 8, !tbaa !3
  %this1 = load ptr, ptr %this.addr, align 8
  %call = call noundef i32 @_ZNK8QuantLib4Date9dayOfYearEv(ptr noundef nonnull align 8 dereferenceable(8) %this1)
  %call2 = call noundef i32 @_ZNK8QuantLib4Date5monthEv(ptr noundef nonnull align 8 dereferenceable(8) %this1)
  %call3 = call noundef i32 @_ZNK8QuantLib4Date4yearEv(ptr noundef nonnull align 8 dereferenceable(8) %this1)
  %call4 = call noundef zeroext i1 @_ZN8QuantLib4Date6isLeapEi(i32 noundef %call3)
  %call5 = call noundef i32 @_ZN8QuantLib4Date11monthOffsetENS_5MonthEb(i32 noundef %call2, i1 noundef zeroext %call4)
  %sub = sub nsw i32 %call, %call5
  ret i32 %sub
}

; Function Attrs: inlinehint mustprogress nounwind uwtable
define linkonce_odr noundef i32 @_ZNK8QuantLib4Date7weekdayEv(ptr noundef nonnull align 8 dereferenceable(8) %this) #3 comdat align 2 {
entry:
  %this.addr = alloca ptr, align 8
  %w = alloca i32, align 4
  store ptr %this, ptr %this.addr, align 8, !tbaa !3
  %this1 = load ptr, ptr %this.addr, align 8
  call void @llvm.lifetime.start.p0(i64 4, ptr %w) #2
  %serialNumber_ = getelementptr inbounds nuw %"class.QuantLib::Date", ptr %this1, i32 0, i32 0
  %0 = load i64, ptr %serialNumber_, align 8, !tbaa !18
  %rem = srem i64 %0, 7
  %conv = trunc i64 %rem to i32
  store i32 %conv, ptr %w, align 4, !tbaa !14
  %1 = load i32, ptr %w, align 4, !tbaa !14
  %cmp = icmp eq i32 %1, 0
  br i1 %cmp, label %cond.true, label %cond.false

cond.true:                                        ; preds = %entry
  br label %cond.end

cond.false:                                       ; preds = %entry
  %2 = load i32, ptr %w, align 4, !tbaa !14
  br label %cond.end

cond.end:                                         ; preds = %cond.false, %cond.true
  %cond = phi i32 [ 7, %cond.true ], [ %2, %cond.false ]
  call void @llvm.lifetime.end.p0(i64 4, ptr %w) #2
  ret i32 %cond
}

; Function Attrs: mustprogress uwtable
define noundef zeroext i1 @_ZNK8QuantLib6Poland14SettlementImpl13isBusinessDayERKNS_4DateE(ptr noundef nonnull align 8 dereferenceable(104) %this, ptr noundef nonnull align 8 dereferenceable(8) %date) unnamed_addr #0 align 2 {
entry:
  %retval = alloca i1, align 1
  %this.addr = alloca ptr, align 8
  %date.addr = alloca ptr, align 8
  %w = alloca i32, align 4
  %d = alloca i32, align 4
  %dd = alloca i32, align 4
  %m = alloca i32, align 4
  %y = alloca i32, align 4
  %em = alloca i32, align 4
  %cleanup.dest.slot = alloca i32, align 4
  store ptr %this, ptr %this.addr, align 8, !tbaa !3
  store ptr %date, ptr %date.addr, align 8, !tbaa !3
  %this1 = load ptr, ptr %this.addr, align 8
  call void @llvm.lifetime.start.p0(i64 4, ptr %w) #2
  %0 = load ptr, ptr %date.addr, align 8, !tbaa !3
  %call = call noundef i32 @_ZNK8QuantLib4Date7weekdayEv(ptr noundef nonnull align 8 dereferenceable(8) %0)
  store i32 %call, ptr %w, align 4, !tbaa !12
  call void @llvm.lifetime.start.p0(i64 4, ptr %d) #2
  %1 = load ptr, ptr %date.addr, align 8, !tbaa !3
  %call2 = call noundef i32 @_ZNK8QuantLib4Date10dayOfMonthEv(ptr noundef nonnull align 8 dereferenceable(8) %1)
  store i32 %call2, ptr %d, align 4, !tbaa !14
  call void @llvm.lifetime.start.p0(i64 4, ptr %dd) #2
  %2 = load ptr, ptr %date.addr, align 8, !tbaa !3
  %call3 = call noundef i32 @_ZNK8QuantLib4Date9dayOfYearEv(ptr noundef nonnull align 8 dereferenceable(8) %2)
  store i32 %call3, ptr %dd, align 4, !tbaa !14
  call void @llvm.lifetime.start.p0(i64 4, ptr %m) #2
  %3 = load ptr, ptr %date.addr, align 8, !tbaa !3
  %call4 = call noundef i32 @_ZNK8QuantLib4Date5monthEv(ptr noundef nonnull align 8 dereferenceable(8) %3)
  store i32 %call4, ptr %m, align 4, !tbaa !16
  call void @llvm.lifetime.start.p0(i64 4, ptr %y) #2
  %4 = load ptr, ptr %date.addr, align 8, !tbaa !3
  %call5 = call noundef i32 @_ZNK8QuantLib4Date4yearEv(ptr noundef nonnull align 8 dereferenceable(8) %4)
  store i32 %call5, ptr %y, align 4, !tbaa !14
  call void @llvm.lifetime.start.p0(i64 4, ptr %em) #2
  %5 = load i32, ptr %y, align 4, !tbaa !14
  %call6 = call noundef i32 @_ZN8QuantLib8Calendar11WesternImpl12easterMondayEi(i32 noundef %5)
  store i32 %call6, ptr %em, align 4, !tbaa !14
  %6 = load i32, ptr %w, align 4, !tbaa !12
  %vtable = load ptr, ptr %this1, align 8, !tbaa !10
  %vfn = getelementptr inbounds ptr, ptr %vtable, i64 4
  %7 = load ptr, ptr %vfn, align 8
  %call7 = call noundef zeroext i1 %7(ptr noundef nonnull align 8 dereferenceable(104) %this1, i32 noundef %6)
  br i1 %call7, label %if.then, label %lor.lhs.false

lor.lhs.false:                                    ; preds = %entry
  %8 = load i32, ptr %dd, align 4, !tbaa !14
  %9 = load i32, ptr %em, align 4, !tbaa !14
  %cmp = icmp eq i32 %8, %9
  br i1 %cmp, label %if.then, label %lor.lhs.false8

lor.lhs.false8:                                   ; preds = %lor.lhs.false
  %10 = load i32, ptr %dd, align 4, !tbaa !14
  %11 = load i32, ptr %em, align 4, !tbaa !14
  %add = add nsw i32 %11, 59
  %cmp9 = icmp eq i32 %10, %add
  br i1 %cmp9, label %if.then, label %lor.lhs.false10

lor.lhs.false10:                                  ; preds = %lor.lhs.false8
  %12 = load i32, ptr %d, align 4, !tbaa !14
  %cmp11 = icmp eq i32 %12, 1
  br i1 %cmp11, label %land.lhs.true, label %lor.lhs.false13

land.lhs.true:                                    ; preds = %lor.lhs.false10
  %13 = load i32, ptr %m, align 4, !tbaa !16
  %cmp12 = icmp eq i32 %13, 1
  br i1 %cmp12, label %if.then, label %lor.lhs.false13

lor.lhs.false13:                                  ; preds = %land.lhs.true, %lor.lhs.false10
  %14 = load i32, ptr %d, align 4, !tbaa !14
  %cmp14 = icmp eq i32 %14, 6
  br i1 %cmp14, label %land.lhs.true15, label %lor.lhs.false19

land.lhs.true15:                                  ; preds = %lor.lhs.false13
  %15 = load i32, ptr %m, align 4, !tbaa !16
  %cmp16 = icmp eq i32 %15, 1
  br i1 %cmp16, label %land.lhs.true17, label %lor.lhs.false19

land.lhs.true17:                                  ; preds = %land.lhs.true15
  %16 = load i32, ptr %y, align 4, !tbaa !14
  %cmp18 = icmp sge i32 %16, 2011
  br i1 %cmp18, label %if.then, label %lor.lhs.false19

lor.lhs.false19:                                  ; preds = %land.lhs.true17, %land.lhs.true15, %lor.lhs.false13
  %17 = load i32, ptr %d, align 4, !tbaa !14
  %cmp20 = icmp eq i32 %17, 1
  br i1 %cmp20, label %land.lhs.true21, label %lor.lhs.false23

land.lhs.true21:                                  ; preds = %lor.lhs.false19
  %18 = load i32, ptr %m, align 4, !tbaa !16
  %cmp22 = icmp eq i32 %18, 5
  br i1 %cmp22, label %if.then, label %lor.lhs.false23

lor.lhs.false23:                                  ; preds = %land.lhs.true21, %lor.lhs.false19
  %19 = load i32, ptr %d, align 4, !tbaa !14
  %cmp24 = icmp eq i32 %19, 3
  br i1 %cmp24, label %land.lhs.true25, label %lor.lhs.false27

land.lhs.true25:                                  ; preds = %lor.lhs.false23
  %20 = load i32, ptr %m, align 4, !tbaa !16
  %cmp26 = icmp eq i32 %20, 5
  br i1 %cmp26, label %if.then, label %lor.lhs.false27

lor.lhs.false27:                                  ; preds = %land.lhs.true25, %lor.lhs.false23
  %21 = load i32, ptr %d, align 4, !tbaa !14
  %cmp28 = icmp eq i32 %21, 15
  br i1 %cmp28, label %land.lhs.true29, label %lor.lhs.false31

land.lhs.true29:                                  ; preds = %lor.lhs.false27
  %22 = load i32, ptr %m, align 4, !tbaa !16
  %cmp30 = icmp eq i32 %22, 8
  br i1 %cmp30, label %if.then, label %lor.lhs.false31

lor.lhs.false31:                                  ; preds = %land.lhs.true29, %lor.lhs.false27
  %23 = load i32, ptr %d, align 4, !tbaa !14
  %cmp32 = icmp eq i32 %23, 1
  br i1 %cmp32, label %land.lhs.true33, label %lor.lhs.false35

land.lhs.true33:                                  ; preds = %lor.lhs.false31
  %24 = load i32, ptr %m, align 4, !tbaa !16
  %cmp34 = icmp eq i32 %24, 11
  br i1 %cmp34, label %if.then, label %lor.lhs.false35

lor.lhs.false35:                                  ; preds = %land.lhs.true33, %lor.lhs.false31
  %25 = load i32, ptr %d, align 4, !tbaa !14
  %cmp36 = icmp eq i32 %25, 11
  br i1 %cmp36, label %land.lhs.true37, label %lor.lhs.false39

land.lhs.true37:                                  ; preds = %lor.lhs.false35
  %26 = load i32, ptr %m, align 4, !tbaa !16
  %cmp38 = icmp eq i32 %26, 11
  br i1 %cmp38, label %if.then, label %lor.lhs.false39

lor.lhs.false39:                                  ; preds = %land.lhs.true37, %lor.lhs.false35
  %27 = load i32, ptr %d, align 4, !tbaa !14
  %cmp40 = icmp eq i32 %27, 25
  br i1 %cmp40, label %land.lhs.true41, label %lor.lhs.false43

land.lhs.true41:                                  ; preds = %lor.lhs.false39
  %28 = load i32, ptr %m, align 4, !tbaa !16
  %cmp42 = icmp eq i32 %28, 12
  br i1 %cmp42, label %if.then, label %lor.lhs.false43

lor.lhs.false43:                                  ; preds = %land.lhs.true41, %lor.lhs.false39
  %29 = load i32, ptr %d, align 4, !tbaa !14
  %cmp44 = icmp eq i32 %29, 26
  br i1 %cmp44, label %land.lhs.true45, label %if.end

land.lhs.true45:                                  ; preds = %lor.lhs.false43
  %30 = load i32, ptr %m, align 4, !tbaa !16
  %cmp46 = icmp eq i32 %30, 12
  br i1 %cmp46, label %if.then, label %if.end

if.then:                                          ; preds = %land.lhs.true45, %land.lhs.true41, %land.lhs.true37, %land.lhs.true33, %land.lhs.true29, %land.lhs.true25, %land.lhs.true21, %land.lhs.true17, %land.lhs.true, %lor.lhs.false8, %lor.lhs.false, %entry
  store i1 false, ptr %retval, align 1
  store i32 1, ptr %cleanup.dest.slot, align 4
  br label %cleanup

if.end:                                           ; preds = %land.lhs.true45, %lor.lhs.false43
  store i1 true, ptr %retval, align 1
  store i32 1, ptr %cleanup.dest.slot, align 4
  br label %cleanup

cleanup:                                          ; preds = %if.end, %if.then
  call void @llvm.lifetime.end.p0(i64 4, ptr %em) #2
  call void @llvm.lifetime.end.p0(i64 4, ptr %y) #2
  call void @llvm.lifetime.end.p0(i64 4, ptr %m) #2
  call void @llvm.lifetime.end.p0(i64 4, ptr %dd) #2
  call void @llvm.lifetime.end.p0(i64 4, ptr %d) #2
  call void @llvm.lifetime.end.p0(i64 4, ptr %w) #2
  %31 = load i1, ptr %retval, align 1
  ret i1 %31
}