; Function Attrs: mustprogress uwtable
define noundef zeroext i1 @_ZNK8QuantLib6Poland14SettlementImpl13isBusinessDayERKNS_4DateE(ptr noundef nonnull align 8 dereferenceable(104) %this, ptr noundef nonnull align 8 dereferenceable(8) %date) unnamed_addr #0 align 2 {
entry:
  %0 = load i64, ptr %date, align 8, !tbaa !44
  %rem.i = srem i64 %0, 7
  %conv.i = trunc nsw i64 %rem.i to i32
  %cmp.i = icmp eq i64 %rem.i, 0
  %cond.i = select i1 %cmp.i, i32 7, i32 %conv.i
  %call.i.i = tail call noundef i32 @_ZNK8QuantLib4Date4yearEv(ptr noundef nonnull align 8 dereferenceable(8) %date)
  %call2.i.i = tail call noundef i64 @_ZN8QuantLib4Date10yearOffsetEi(i32 noundef %call.i.i)
  %sub.i.i = sub nsw i64 %0, %call2.i.i
  %conv.i.i = trunc i64 %sub.i.i to i32
  %call2.i = tail call noundef i32 @_ZNK8QuantLib4Date5monthEv(ptr noundef nonnull align 8 dereferenceable(8) %date)
  %call3.i = tail call noundef i32 @_ZNK8QuantLib4Date4yearEv(ptr noundef nonnull align 8 dereferenceable(8) %date)
  %call4.i = tail call noundef zeroext i1 @_ZN8QuantLib4Date6isLeapEi(i32 noundef %call3.i)
  %call5.i = tail call noundef i32 @_ZN8QuantLib4Date11monthOffsetENS_5MonthEb(i32 noundef %call2.i, i1 noundef zeroext %call4.i)
  %sub.i = sub nsw i32 %conv.i.i, %call5.i
  %1 = load i64, ptr %date, align 8, !tbaa !44
  %call.i = tail call noundef i32 @_ZNK8QuantLib4Date4yearEv(ptr noundef nonnull align 8 dereferenceable(8) %date)
  %call2.i38 = tail call noundef i64 @_ZN8QuantLib4Date10yearOffsetEi(i32 noundef %call.i)
  %sub.i39 = sub nsw i64 %1, %call2.i38
  %conv.i40 = trunc i64 %sub.i39 to i32
  %call4 = tail call noundef i32 @_ZNK8QuantLib4Date5monthEv(ptr noundef nonnull align 8 dereferenceable(8) %date)
  %call5 = tail call noundef i32 @_ZNK8QuantLib4Date4yearEv(ptr noundef nonnull align 8 dereferenceable(8) %date)
  %call6 = tail call noundef i32 @_ZN8QuantLib8Calendar11WesternImpl12easterMondayEi(i32 noundef %call5)
  %vtable = load ptr, ptr %this, align 8, !tbaa !12
  %vfn = getelementptr inbounds i8, ptr %vtable, i64 32
  %2 = load ptr, ptr %vfn, align 8
  %call7 = tail call noundef zeroext i1 %2(ptr noundef nonnull align 8 dereferenceable(104) %this, i32 noundef %cond.i)
  %cmp = icmp eq i32 %call6, %conv.i40
  %or.cond33 = or i1 %cmp, %call7
  %add = add nsw i32 %call6, 59
  %cmp9 = icmp eq i32 %add, %conv.i40
  %or.cond34 = select i1 %or.cond33, i1 true, i1 %cmp9
  br i1 %or.cond34, label %cleanup, label %lor.lhs.false10

lor.lhs.false10:                                  ; preds = %entry
  %cmp11 = icmp eq i32 %sub.i, 1
  %cmp12 = icmp eq i32 %call4, 1
  %or.cond = and i1 %cmp11, %cmp12
  br i1 %or.cond, label %cleanup, label %lor.lhs.false13

lor.lhs.false13:                                  ; preds = %lor.lhs.false10
  %cmp14 = icmp eq i32 %sub.i, 6
  %cmp18 = icmp sgt i32 %call5, 2010
  %3 = and i1 %cmp14, %cmp18
  %or.cond2 = and i1 %cmp12, %3
  br i1 %or.cond2, label %cleanup, label %lor.lhs.false19

lor.lhs.false19:                                  ; preds = %lor.lhs.false13
  %cmp22 = icmp eq i32 %call4, 5
  %cmp24 = icmp eq i32 %sub.i, 3
  %or.cond341 = or i1 %cmp11, %cmp24
  %or.cond35 = and i1 %or.cond341, %cmp22
  br i1 %or.cond35, label %cleanup, label %lor.lhs.false27

lor.lhs.false27:                                  ; preds = %lor.lhs.false19
  %cmp28 = icmp eq i32 %sub.i, 15
  %cmp30 = icmp eq i32 %call4, 8
  %or.cond5 = and i1 %cmp28, %cmp30
  br i1 %or.cond5, label %cleanup, label %lor.lhs.false31

lor.lhs.false31:                                  ; preds = %lor.lhs.false27
  %cmp34 = icmp eq i32 %call4, 11
  %cmp36 = icmp eq i32 %sub.i, 11
  %or.cond642 = or i1 %cmp11, %cmp36
  %or.cond36 = and i1 %or.cond642, %cmp34
  br i1 %or.cond36, label %cleanup, label %lor.lhs.false39

lor.lhs.false39:                                  ; preds = %lor.lhs.false31
  %cmp42 = icmp ne i32 %call4, 12
  %4 = add i32 %sub.i, -27
  %or.cond843 = icmp ult i32 %4, -2
  %or.cond37.not = or i1 %or.cond843, %cmp42
  br label %cleanup

cleanup:                                          ; preds = %lor.lhs.false39, %entry, %lor.lhs.false10, %lor.lhs.false13, %lor.lhs.false19, %lor.lhs.false27, %lor.lhs.false31
  %retval.0 = phi i1 [ false, %lor.lhs.false31 ], [ false, %lor.lhs.false27 ], [ false, %lor.lhs.false19 ], [ false, %lor.lhs.false13 ], [ false, %lor.lhs.false10 ], [ false, %entry ], [ %or.cond37.not, %lor.lhs.false39 ]
  ret i1 %retval.0
}